target datalayout = "e-m:e-p270:32:32-p271:32:32-p272:64:64-i64:64-i128:128-f80:128-n8:16:32:64-S128"
target triple = "x86_64-pc-linux-gnu"

%struct.archive_write_filter = type { i64, ptr, ptr, ptr, ptr, ptr, ptr, ptr, ptr, ptr, ptr, i32, i32, i32, i32 }
%struct.archive_write_program_data = type { i32, i32, i32, ptr, i64, i64, ptr }

@.str.4 = private unnamed_addr constant [27 x i8] c"Can't write to program: %s\00", align 1

; Function Attrs: nounwind uwtable
define internal i64 @child_write(ptr noundef %0, ptr noundef %1, ptr noundef %2, i64 noundef %3) #0 {
  %5 = alloca i64, align 8
  %6 = alloca ptr, align 8
  %7 = alloca ptr, align 8
  %8 = alloca ptr, align 8
  %9 = alloca i64, align 8
  %10 = alloca i64, align 8
  store ptr %0, ptr %6, align 8
  store ptr %1, ptr %7, align 8
  store ptr %2, ptr %8, align 8
  store i64 %3, ptr %9, align 8
  %11 = load ptr, ptr %7, align 8
  %12 = getelementptr inbounds %struct.archive_write_program_data, ptr %11, i32 0, i32 1
  %13 = load i32, ptr %12, align 4
  %14 = icmp eq i32 %13, -1
  br i1 %14, label %15, label %16

15:                                               ; preds = %4
  store i64 -1, ptr %5, align 8
  br label %172

16:                                               ; preds = %4
  %17 = load i64, ptr %9, align 8
  %18 = icmp eq i64 %17, 0
  br i1 %18, label %19, label %20

19:                                               ; preds = %16
  store i64 -1, ptr %5, align 8
  br label %172

20:                                               ; preds = %16
  br label %21

21:                                               ; preds = %169, %138, %120, %70, %20
  br label %22

22:                                               ; preds = %36, %21
  %23 = load ptr, ptr %7, align 8
  %24 = getelementptr inbounds %struct.archive_write_program_data, ptr %23, i32 0, i32 1
  %25 = load i32, ptr %24, align 4
  %26 = load ptr, ptr %8, align 8
  %27 = load i64, ptr %9, align 8
  %28 = call i64 @write(i32 noundef %25, ptr noundef %26, i64 noundef %27)
  store i64 %28, ptr %10, align 8
  br label %29

29:                                               ; preds = %22
  %30 = load i64, ptr %10, align 8
  %31 = icmp eq i64 %30, -1
  br i1 %31, label %32, label %36

32:                                               ; preds = %29
  %33 = call ptr @__errno_location() #11
  %34 = load i32, ptr %33, align 4
  %35 = icmp eq i32 %34, 4
  br label %36

36:                                               ; preds = %32, %29
  %37 = phi i1 [ false, %29 ], [ %35, %32 ]
  br i1 %37, label %22, label %38, !llvm.loop !7

38:                                               ; preds = %36
  %39 = load i64, ptr %10, align 8
  %40 = icmp sgt i64 %39, 0
  br i1 %40, label %41, label %43

41:                                               ; preds = %38
  %42 = load i64, ptr %10, align 8
  store i64 %42, ptr %5, align 8
  br label %172

43:                                               ; preds = %38
  %44 = load i64, ptr %10, align 8
  %45 = icmp eq i64 %44, 0
  br i1 %45, label %46, label %57

46:                                               ; preds = %43
  %47 = load ptr, ptr %7, align 8
  %48 = getelementptr inbounds %struct.archive_write_program_data, ptr %47, i32 0, i32 1
  %49 = load i32, ptr %48, align 4
  %50 = call i32 @close(i32 noundef %49)
  %51 = load ptr, ptr %7, align 8
  %52 = getelementptr inbounds %struct.archive_write_program_data, ptr %51, i32 0, i32 1
  store i32 -1, ptr %52, align 4
  %53 = load ptr, ptr %7, align 8
  %54 = getelementptr inbounds %struct.archive_write_program_data, ptr %53, i32 0, i32 2
  %55 = load i32, ptr %54, align 8
  %56 = call i32 (i32, i32, ...) @fcntl(i32 noundef %55, i32 noundef 4, i32 noundef 0)
  store i64 0, ptr %5, align 8
  br label %172

57:                                               ; preds = %43
  %58 = load i64, ptr %10, align 8
  %59 = icmp eq i64 %58, -1
  br i1 %59, label %60, label %65

60:                                               ; preds = %57
  %61 = call ptr @__errno_location() #11
  %62 = load i32, ptr %61, align 4
  %63 = icmp ne i32 %62, 11
  br i1 %63, label %64, label %65

64:                                               ; preds = %60
  store i64 -1, ptr %5, align 8
  br label %172

65:                                               ; preds = %60, %57
  %66 = load ptr, ptr %7, align 8
  %67 = getelementptr inbounds %struct.archive_write_program_data, ptr %66, i32 0, i32 2
  %68 = load i32, ptr %67, align 8
  %69 = icmp eq i32 %68, -1
  br i1 %69, label %70, label %81

70:                                               ; preds = %65
  %71 = load ptr, ptr %7, align 8
  %72 = getelementptr inbounds %struct.archive_write_program_data, ptr %71, i32 0, i32 1
  %73 = load i32, ptr %72, align 4
  %74 = call i32 (i32, i32, ...) @fcntl(i32 noundef %73, i32 noundef 4, i32 noundef 0)
  %75 = load ptr, ptr %7, align 8
  %76 = getelementptr inbounds %struct.archive_write_program_data, ptr %75, i32 0, i32 1
  %77 = load i32, ptr %76, align 4
  %78 = load ptr, ptr %7, align 8
  %79 = getelementptr inbounds %struct.archive_write_program_data, ptr %78, i32 0, i32 2
  %80 = load i32, ptr %79, align 8
  call void @__archive_check_child(i32 noundef %77, i32 noundef %80)
  br label %21

81:                                               ; preds = %65
  br label %82

82:                                               ; preds = %108, %81
  %83 = load ptr, ptr %7, align 8
  %84 = getelementptr inbounds %struct.archive_write_program_data, ptr %83, i32 0, i32 2
  %85 = load i32, ptr %84, align 8
  %86 = load ptr, ptr %7, align 8
  %87 = getelementptr inbounds %struct.archive_write_program_data, ptr %86, i32 0, i32 3
  %88 = load ptr, ptr %87, align 8
  %89 = load ptr, ptr %7, align 8
  %90 = getelementptr inbounds %struct.archive_write_program_data, ptr %89, i32 0, i32 5
  %91 = load i64, ptr %90, align 8
  %92 = getelementptr inbounds i8, ptr %88, i64 %91
  %93 = load ptr, ptr %7, align 8
  %94 = getelementptr inbounds %struct.archive_write_program_data, ptr %93, i32 0, i32 4
  %95 = load i64, ptr %94, align 8
  %96 = load ptr, ptr %7, align 8
  %97 = getelementptr inbounds %struct.archive_write_program_data, ptr %96, i32 0, i32 5
  %98 = load i64, ptr %97, align 8
  %99 = sub i64 %95, %98
  %100 = call i64 @read(i32 noundef %85, ptr noundef %92, i64 noundef %99)
  store i64 %100, ptr %10, align 8
  br label %101

101:                                              ; preds = %82
  %102 = load i64, ptr %10, align 8
  %103 = icmp eq i64 %102, -1
  br i1 %103, label %104, label %108

104:                                              ; preds = %101
  %105 = call ptr @__errno_location() #11
  %106 = load i32, ptr %105, align 4
  %107 = icmp eq i32 %106, 4
  br label %108

108:                                              ; preds = %104, %101
  %109 = phi i1 [ false, %101 ], [ %107, %104 ]
  br i1 %109, label %82, label %110, !llvm.loop !8

110:                                              ; preds = %108
  %111 = load i64, ptr %10, align 8
  %112 = icmp eq i64 %111, 0
  br i1 %112, label %120, label %113

113:                                              ; preds = %110
  %114 = load i64, ptr %10, align 8
  %115 = icmp eq i64 %114, -1
  br i1 %115, label %116, label %131

116:                                              ; preds = %113
  %117 = call ptr @__errno_location() #11
  %118 = load i32, ptr %117, align 4
  %119 = icmp eq i32 %118, 32
  br i1 %119, label %120, label %131

120:                                              ; preds = %116, %110
  %121 = load ptr, ptr %7, align 8
  %122 = getelementptr inbounds %struct.archive_write_program_data, ptr %121, i32 0, i32 2
  %123 = load i32, ptr %122, align 8
  %124 = call i32 @close(i32 noundef %123)
  %125 = load ptr, ptr %7, align 8
  %126 = getelementptr inbounds %struct.archive_write_program_data, ptr %125, i32 0, i32 2
  store i32 -1, ptr %126, align 8
  %127 = load ptr, ptr %7, align 8
  %128 = getelementptr inbounds %struct.archive_write_program_data, ptr %127, i32 0, i32 1
  %129 = load i32, ptr %128, align 4
  %130 = call i32 (i32, i32, ...) @fcntl(i32 noundef %129, i32 noundef 4, i32 noundef 0)
  br label %21

131:                                              ; preds = %116, %113
  %132 = load i64, ptr %10, align 8
  %133 = icmp eq i64 %132, -1
  br i1 %133, label %134, label %145

134:                                              ; preds = %131
  %135 = call ptr @__errno_location() #11
  %136 = load i32, ptr %135, align 4
  %137 = icmp eq i32 %136, 11
  br i1 %137, label %138, label %145

138:                                              ; preds = %134
  %139 = load ptr, ptr %7, align 8
  %140 = getelementptr inbounds %struct.archive_write_program_data, ptr %139, i32 0, i32 1
  %141 = load i32, ptr %140, align 4
  %142 = load ptr, ptr %7, align 8
  %143 = getelementptr inbounds %struct.archive_write_program_data, ptr %142, i32 0, i32 2
  %144 = load i32, ptr %143, align 8
  call void @__archive_check_child(i32 noundef %141, i32 noundef %144)
  br label %21

145:                                              ; preds = %134, %131
  %146 = load i64, ptr %10, align 8
  %147 = icmp eq i64 %146, -1
  br i1 %147, label %148, label %149

148:                                              ; preds = %145
  store i64 -1, ptr %5, align 8
  br label %172

149:                                              ; preds = %145
  %150 = load i64, ptr %10, align 8
  %151 = load ptr, ptr %7, align 8
  %152 = getelementptr inbounds %struct.archive_write_program_data, ptr %151, i32 0, i32 5
  %153 = load i64, ptr %152, align 8
  %154 = add i64 %153, %150
  store i64 %154, ptr %152, align 8
  %155 = load ptr, ptr %6, align 8
  %156 = getelementptr inbounds %struct.archive_write_filter, ptr %155, i32 0, i32 2
  %157 = load ptr, ptr %156, align 8
  %158 = load ptr, ptr %7, align 8
  %159 = getelementptr inbounds %struct.archive_write_program_data, ptr %158, i32 0, i32 3
  %160 = load ptr, ptr %159, align 8
  %161 = load ptr, ptr %7, align 8
  %162 = getelementptr inbounds %struct.archive_write_program_data, ptr %161, i32 0, i32 5
  %163 = load i64, ptr %162, align 8
  %164 = call i32 @__archive_write_filter(ptr noundef %157, ptr noundef %160, i64 noundef %163)
  %165 = sext i32 %164 to i64
  store i64 %165, ptr %10, align 8
  %166 = load i64, ptr %10, align 8
  %167 = icmp ne i64 %166, 0
  br i1 %167, label %168, label %169

168:                                              ; preds = %149
  store i64 -1, ptr %5, align 8
  br label %172

169:                                              ; preds = %149
  %170 = load ptr, ptr %7, align 8
  %171 = getelementptr inbounds %struct.archive_write_program_data, ptr %170, i32 0, i32 5
  store i64 0, ptr %171, align 8
  br label %21

172:                                              ; preds = %168, %148, %64, %46, %41, %19, %15
  %173 = load i64, ptr %5, align 8
  ret i64 %173
}

; Function Attrs: nounwind uwtable
define dso_local i32 @__archive_write_program_write(ptr noundef %0, ptr noundef %1, ptr noundef %2, i64 noundef %3) #0 {
  %5 = alloca i32, align 4
  %6 = alloca ptr, align 8
  %7 = alloca ptr, align 8
  %8 = alloca ptr, align 8
  %9 = alloca i64, align 8
  %10 = alloca i64, align 8
  %11 = alloca ptr, align 8
  store ptr %0, ptr %6, align 8
  store ptr %1, ptr %7, align 8
  store ptr %2, ptr %8, align 8
  store i64 %3, ptr %9, align 8
  %12 = load ptr, ptr %7, align 8
  %13 = getelementptr inbounds %struct.archive_write_program_data, ptr %12, i32 0, i32 0
  %14 = load i32, ptr %13, align 8
  %15 = icmp eq i32 %14, 0
  br i1 %15, label %16, label %17

16:                                               ; preds = %4
  store i32 0, ptr %5, align 4
  br label %48

17:                                               ; preds = %4
  %18 = load ptr, ptr %8, align 8
  store ptr %18, ptr %11, align 8
  br label %19

19:                                               ; preds = %40, %17
  %20 = load i64, ptr %9, align 8
  %21 = icmp ugt i64 %20, 0
  br i1 %21, label %22, label %47

22:                                               ; preds = %19
  %23 = load ptr, ptr %6, align 8
  %24 = load ptr, ptr %7, align 8
  %25 = load ptr, ptr %11, align 8
  %26 = load i64, ptr %9, align 8
  %27 = call i64 @child_write(ptr noundef %23, ptr noundef %24, ptr noundef %25, i64 noundef %26)
  store i64 %27, ptr %10, align 8
  %28 = load i64, ptr %10, align 8
  %29 = icmp eq i64 %28, -1
  br i1 %29, label %33, label %30

30:                                               ; preds = %22
  %31 = load i64, ptr %10, align 8
  %32 = icmp eq i64 %31, 0
  br i1 %32, label %33, label %40

33:                                               ; preds = %30, %22
  %34 = load ptr, ptr %6, align 8
  %35 = getelementptr inbounds %struct.archive_write_filter, ptr %34, i32 0, i32 1
  %36 = load ptr, ptr %35, align 8
  %37 = load ptr, ptr %7, align 8
  %38 = getelementptr inbounds %struct.archive_write_program_data, ptr %37, i32 0, i32 6
  %39 = load ptr, ptr %38, align 8
  call void (ptr, i32, ptr, ...) @archive_set_error(ptr noundef %36, i32 noundef 5, ptr noundef @.str.4, ptr noundef %39)
  store i32 -30, ptr %5, align 4
  br label %48

40:                                               ; preds = %30
  %41 = load i64, ptr %10, align 8
  %42 = load i64, ptr %9, align 8
  %43 = sub i64 %42, %41
  store i64 %43, ptr %9, align 8
  %44 = load i64, ptr %10, align 8
  %45 = load ptr, ptr %11, align 8
  %46 = getelementptr inbounds i8, ptr %45, i64 %44
  store ptr %46, ptr %11, align 8
  br label %19, !llvm.loop !5

47:                                               ; preds = %19
  store i32 0, ptr %5, align 4
  br label %48

48:                                               ; preds = %47, %33, %16
  %49 = load i32, ptr %5, align 4
  ret i32 %49
}