; Function Attrs: nounwind uwtable
define dso_local range(i32 -30, 1) i32 @__archive_write_program_write(ptr noundef readonly captures(none) %0, ptr noundef captures(none) %1, ptr noundef readonly captures(none) %2, i64 noundef %3) local_unnamed_addr #0 {
  %5 = load i32, ptr %1, align 8
  %6 = icmp eq i32 %5, 0
  %.not41 = icmp eq i64 %3, 0
  %or.cond = or i1 %6, %.not41
  br i1 %or.cond, label %.loopexit23, label %.lr.ph

.lr.ph:                                           ; preds = %4
  %7 = getelementptr inbounds nuw i8, ptr %1, i64 4
  %8 = getelementptr inbounds nuw i8, ptr %1, i64 8
  %9 = getelementptr inbounds nuw i8, ptr %1, i64 16
  %10 = getelementptr inbounds nuw i8, ptr %1, i64 32
  %11 = getelementptr inbounds nuw i8, ptr %1, i64 24
  %12 = getelementptr inbounds nuw i8, ptr %0, i64 16
  br label %13

13:                                               ; preds = %.lr.ph, %child_write.exit
  %.043 = phi ptr [ %2, %.lr.ph ], [ %61, %child_write.exit ]
  %.01742 = phi i64 [ %3, %.lr.ph ], [ %60, %child_write.exit ]
  %14 = load i32, ptr %7, align 4
  %15 = icmp eq i32 %14, -1
  br i1 %15, label %child_write.exit.thread, label %.preheader49.i

.preheader49.i:                                   ; preds = %13, %.preheader49.i.backedge
  %16 = load i32, ptr %7, align 4
  %17 = tail call i64 @write(i32 noundef %16, ptr noundef readonly %.043, i64 noundef range(i64 1, 0) %.01742) #11
  %18 = icmp eq i64 %17, -1
  br i1 %18, label %19, label %.critedge.i

19:                                               ; preds = %.preheader49.i
  %20 = tail call ptr @__errno_location() #15
  %21 = load i32, ptr %20, align 4
  switch i32 %21, label %child_write.exit.thread [
    i32 4, label %.preheader49.i.backedge
    i32 11, label %.loopexit
  ]

.preheader49.i.backedge:                          ; preds = %19, %59, %51, %.loopexit.i, %32
  br label %.preheader49.i

.critedge.i:                                      ; preds = %.preheader49.i
  %22 = icmp sgt i64 %17, 0
  br i1 %22, label %child_write.exit, label %23

23:                                               ; preds = %.critedge.i
  %24 = icmp eq i64 %17, 0
  br i1 %24, label %25, label %.loopexit

25:                                               ; preds = %23
  %26 = load i32, ptr %7, align 4
  %27 = tail call i32 @close(i32 noundef %26) #11
  store i32 -1, ptr %7, align 4
  %28 = load i32, ptr %8, align 8
  %29 = tail call i32 (i32, i32, ...) @fcntl(i32 noundef %28, i32 noundef 4, i32 noundef 0) #11
  br label %child_write.exit.thread

.loopexit:                                        ; preds = %19, %23
  %30 = load i32, ptr %8, align 8
  %31 = icmp eq i32 %30, -1
  br i1 %31, label %32, label %.preheader.i

32:                                               ; preds = %.loopexit
  %33 = load i32, ptr %7, align 4
  %34 = tail call i32 (i32, i32, ...) @fcntl(i32 noundef %33, i32 noundef 4, i32 noundef 0) #11
  %35 = load i32, ptr %7, align 4
  %36 = load i32, ptr %8, align 8
  tail call void @__archive_check_child(i32 noundef %35, i32 noundef %36) #11
  br label %.preheader49.i.backedge

.preheader.i:                                     ; preds = %.loopexit, %44
  %37 = load i32, ptr %8, align 8
  %38 = load ptr, ptr %9, align 8
  %39 = load i64, ptr %10, align 8
  %40 = getelementptr inbounds i8, ptr %38, i64 %39
  %41 = load i64, ptr %11, align 8
  %42 = sub i64 %41, %39
  %43 = tail call i64 @read(i32 noundef %37, ptr noundef %40, i64 noundef %42) #11
  switch i64 %43, label %.critedge46.i [
    i64 -1, label %44
    i64 0, label %.loopexit.i
  ]

44:                                               ; preds = %.preheader.i
  %45 = tail call ptr @__errno_location() #15
  %46 = load i32, ptr %45, align 4
  switch i32 %46, label %child_write.exit.thread [
    i32 4, label %.preheader.i
    i32 32, label %.loopexit.i
    i32 11, label %51
  ]

.loopexit.i:                                      ; preds = %44, %.preheader.i
  %47 = load i32, ptr %8, align 8
  %48 = tail call i32 @close(i32 noundef %47) #11
  store i32 -1, ptr %8, align 8
  %49 = load i32, ptr %7, align 4
  %50 = tail call i32 (i32, i32, ...) @fcntl(i32 noundef %49, i32 noundef 4, i32 noundef 0) #11
  br label %.preheader49.i.backedge

51:                                               ; preds = %44
  %52 = load i32, ptr %7, align 4
  %53 = load i32, ptr %8, align 8
  tail call void @__archive_check_child(i32 noundef %52, i32 noundef %53) #11
  br label %.preheader49.i.backedge

.critedge46.i:                                    ; preds = %.preheader.i
  %54 = load i64, ptr %10, align 8
  %55 = add i64 %54, %43
  store i64 %55, ptr %10, align 8
  %56 = load ptr, ptr %12, align 8
  %57 = load ptr, ptr %9, align 8
  %58 = tail call i32 @__archive_write_filter(ptr noundef %56, ptr noundef %57, i64 noundef %55) #11
  %.not43.i = icmp eq i32 %58, 0
  br i1 %.not43.i, label %59, label %child_write.exit.thread

59:                                               ; preds = %.critedge46.i
  store i64 0, ptr %10, align 8
  br label %.preheader49.i.backedge

child_write.exit:                                 ; preds = %.critedge.i
  %60 = sub i64 %.01742, %17
  %61 = getelementptr inbounds nuw i8, ptr %.043, i64 %17
  %.not = icmp eq i64 %60, 0
  br i1 %.not, label %.loopexit23, label %13, !llvm.loop !5

child_write.exit.thread:                          ; preds = %13, %.critedge46.i, %19, %44, %25
  %62 = getelementptr inbounds nuw i8, ptr %0, i64 8
  %63 = load ptr, ptr %62, align 8
  %64 = getelementptr inbounds nuw i8, ptr %1, i64 40
  %65 = load ptr, ptr %64, align 8
  tail call void (ptr, i32, ptr, ...) @archive_set_error(ptr noundef %63, i32 noundef 5, ptr noundef nonnull @.str.4, ptr noundef %65) #11
  br label %.loopexit23

.loopexit23:                                      ; preds = %child_write.exit, %4, %child_write.exit.thread
  %.016 = phi i32 [ -30, %child_write.exit.thread ], [ 0, %4 ], [ 0, %child_write.exit ]
  ret i32 %.016
}